target datalayout = "e-m:e-p270:32:32-p271:32:32-p272:64:64-i64:64-i128:128-f80:128-n8:16:32:64-S128"
target triple = "x86_64-pc-linux-gnu"

%struct.nstime_t = type { i64, i32 }
%struct._packet_info = type { ptr, ptr, i32, i32, %struct.nstime_t, %struct.nstime_t, %struct.nstime_t, i32, ptr, ptr, ptr, ptr, %struct._address, %struct._address, %struct._address, %struct._address, %struct._address, %struct._address, i32, ptr, i32, %struct.anon.0, i32, i32, i32, i32, ptr, i32, ptr, ptr, i16, i16, i32, i32, i16, i32, i32, ptr, ptr, ptr, i8, i8, i16, i16, i16, i32, i16, i16, ptr, ptr, ptr, ptr, ptr, i32 }
%struct._address = type { i32, i32, ptr, ptr }
%struct.anon.0 = type { i8, [3 x i8] }
%struct.mbim_pair_list = type { i32, i32 }

@hf_mbim_adpclk_freq_info_elem_count = internal global i32 0, align 4
@hf_mbim_adpclk_freq_info_adpclk_freq_value_offset = internal global i32 0, align 4
@hf_mbim_adpclk_freq_info_adpclk_freq_value_size = internal global i32 0, align 4
@hf_mbim_adpclk_freq_info_adpclk_freq_value_center_freq = internal global i32 0, align 4
@hf_mbim_adpclk_freq_info_adpclk_freq_value_freq_spread = internal global i32 0, align 4
@hf_mbim_adpclk_freq_info_adpclk_freq_value_noise_power = internal global i32 0, align 4
@hf_mbim_adpclk_freq_info_adpclk_freq_value_rssi = internal global i32 0, align 4
@hf_mbim_adpclk_freq_info_adpclk_freq_value_connect_status = internal global i32 0, align 4
@ett_mbim_pair_list = internal global i32 0, align 4
@.str.2595 = private unnamed_addr constant [27 x i8] c"Element Offset Length Pair\00", align 1
@.str.2596 = private unnamed_addr constant [22 x i8] c"ADPCLK Freq Value #%u\00", align 1

; Function Attrs: nounwind uwtable
define internal void @mbim_dissect_adpclk_freq_value(ptr noundef %0, ptr noundef %1, ptr noundef %2, i32 noundef %3, i32 noundef %4) #0 {
  %6 = alloca ptr, align 8
  %7 = alloca ptr, align 8
  %8 = alloca ptr, align 8
  %9 = alloca i32, align 4
  %10 = alloca i32, align 4
  store ptr %0, ptr %6, align 8
  store ptr %1, ptr %7, align 8
  store ptr %2, ptr %8, align 8
  store i32 %3, ptr %9, align 4
  store i32 %4, ptr %10, align 4
  %11 = load ptr, ptr %8, align 8
  %12 = load i32, ptr @hf_mbim_adpclk_freq_info_adpclk_freq_value_center_freq, align 4
  %13 = load ptr, ptr %6, align 8
  %14 = load i32, ptr %9, align 4
  %15 = call ptr @proto_tree_add_item(ptr noundef %11, i32 noundef %12, ptr noundef %13, i32 noundef %14, i32 noundef 8, i32 noundef -2147483648)
  %16 = load i32, ptr %9, align 4
  %17 = add i32 %16, 4
  store i32 %17, ptr %9, align 4
  %18 = load ptr, ptr %8, align 8
  %19 = load i32, ptr @hf_mbim_adpclk_freq_info_adpclk_freq_value_freq_spread, align 4
  %20 = load ptr, ptr %6, align 8
  %21 = load i32, ptr %9, align 4
  %22 = call ptr @proto_tree_add_item(ptr noundef %18, i32 noundef %19, ptr noundef %20, i32 noundef %21, i32 noundef 4, i32 noundef -2147483648)
  %23 = load i32, ptr %9, align 4
  %24 = add i32 %23, 4
  store i32 %24, ptr %9, align 4
  %25 = load i32, ptr %10, align 4
  %26 = icmp ugt i32 %25, 8
  br i1 %26, label %27, label %55

27:                                               ; preds = %5
  %28 = load ptr, ptr %8, align 8
  %29 = load i32, ptr @hf_mbim_adpclk_freq_info_adpclk_freq_value_noise_power, align 4
  %30 = load ptr, ptr %6, align 8
  %31 = load i32, ptr %9, align 4
  %32 = call ptr @proto_tree_add_item(ptr noundef %28, i32 noundef %29, ptr noundef %30, i32 noundef %31, i32 noundef 4, i32 noundef -2147483648)
  %33 = load i32, ptr %9, align 4
  %34 = add i32 %33, 4
  store i32 %34, ptr %9, align 4
  %35 = load i32, ptr %10, align 4
  %36 = icmp ugt i32 %35, 12
  br i1 %36, label %37, label %54

37:                                               ; preds = %27
  %38 = load ptr, ptr %8, align 8
  %39 = load i32, ptr @hf_mbim_adpclk_freq_info_adpclk_freq_value_rssi, align 4
  %40 = load ptr, ptr %6, align 8
  %41 = load i32, ptr %9, align 4
  %42 = call ptr @proto_tree_add_item(ptr noundef %38, i32 noundef %39, ptr noundef %40, i32 noundef %41, i32 noundef 4, i32 noundef -2147483648)
  %43 = load i32, ptr %9, align 4
  %44 = add i32 %43, 4
  store i32 %44, ptr %9, align 4
  %45 = load i32, ptr %10, align 4
  %46 = icmp ugt i32 %45, 16
  br i1 %46, label %47, label %53

47:                                               ; preds = %37
  %48 = load ptr, ptr %8, align 8
  %49 = load i32, ptr @hf_mbim_adpclk_freq_info_adpclk_freq_value_connect_status, align 4
  %50 = load ptr, ptr %6, align 8
  %51 = load i32, ptr %9, align 4
  %52 = call ptr @proto_tree_add_item(ptr noundef %48, i32 noundef %49, ptr noundef %50, i32 noundef %51, i32 noundef 4, i32 noundef -2147483648)
  br label %53

53:                                               ; preds = %47, %37
  br label %54

54:                                               ; preds = %53, %27
  br label %55

55:                                               ; preds = %54, %5
  ret void
}

; Function Attrs: nounwind uwtable
define internal void @mbim_dissect_adpclk_freq_info(ptr noundef %0, ptr noundef %1, ptr noundef %2, i32 noundef %3) #0 {
  %5 = alloca ptr, align 8
  %6 = alloca ptr, align 8
  %7 = alloca ptr, align 8
  %8 = alloca i32, align 4
  %9 = alloca ptr, align 8
  %10 = alloca i32, align 4
  %11 = alloca i32, align 4
  %12 = alloca i32, align 4
  %13 = alloca ptr, align 8
  %14 = alloca %struct.mbim_pair_list, align 4
  %15 = alloca ptr, align 8
  store ptr %0, ptr %5, align 8
  store ptr %1, ptr %6, align 8
  store ptr %2, ptr %7, align 8
  store i32 %3, ptr %8, align 4
  %16 = load i32, ptr %8, align 4
  store i32 %16, ptr %10, align 4
  %17 = load ptr, ptr %7, align 8
  %18 = load i32, ptr @hf_mbim_adpclk_freq_info_elem_count, align 4
  %19 = load ptr, ptr %5, align 8
  %20 = load i32, ptr %8, align 4
  %21 = call ptr @proto_tree_add_item_ret_uint(ptr noundef %17, i32 noundef %18, ptr noundef %19, i32 noundef %20, i32 noundef 4, i32 noundef -2147483648, ptr noundef %12)
  %22 = load i32, ptr %8, align 4
  %23 = add i32 %22, 4
  store i32 %23, ptr %8, align 4
  %24 = load i32, ptr %12, align 4
  %25 = icmp ne i32 %24, 0
  br i1 %25, label %26, label %112

26:                                               ; preds = %4
  %27 = load ptr, ptr %6, align 8
  %28 = getelementptr inbounds %struct._packet_info, ptr %27, i32 0, i32 50
  %29 = load ptr, ptr %28, align 8
  %30 = call noalias ptr @wmem_array_new(ptr noundef %29, i64 noundef 8)
  store ptr %30, ptr %13, align 8
  %31 = load ptr, ptr %7, align 8
  %32 = load ptr, ptr %5, align 8
  %33 = load i32, ptr %8, align 4
  %34 = load i32, ptr %12, align 4
  %35 = mul i32 8, %34
  %36 = load i32, ptr @ett_mbim_pair_list, align 4
  %37 = call ptr @proto_tree_add_subtree(ptr noundef %31, ptr noundef %32, i32 noundef %33, i32 noundef %35, i32 noundef %36, ptr noundef null, ptr noundef @.str.2595)
  store ptr %37, ptr %9, align 8
  store i32 0, ptr %11, align 4
  br label %38

38:                                               ; preds = %60, %26
  %39 = load i32, ptr %11, align 4
  %40 = load i32, ptr %12, align 4
  %41 = icmp ult i32 %39, %40
  br i1 %41, label %42, label %63

42:                                               ; preds = %38
  %43 = load ptr, ptr %9, align 8
  %44 = load i32, ptr @hf_mbim_adpclk_freq_info_adpclk_freq_value_offset, align 4
  %45 = load ptr, ptr %5, align 8
  %46 = load i32, ptr %8, align 4
  %47 = getelementptr inbounds %struct.mbim_pair_list, ptr %14, i32 0, i32 0
  %48 = call ptr @proto_tree_add_item_ret_uint(ptr noundef %43, i32 noundef %44, ptr noundef %45, i32 noundef %46, i32 noundef 4, i32 noundef -2147483648, ptr noundef %47)
  %49 = load i32, ptr %8, align 4
  %50 = add i32 %49, 4
  store i32 %50, ptr %8, align 4
  %51 = load ptr, ptr %9, align 8
  %52 = load i32, ptr @hf_mbim_adpclk_freq_info_adpclk_freq_value_size, align 4
  %53 = load ptr, ptr %5, align 8
  %54 = load i32, ptr %8, align 4
  %55 = getelementptr inbounds %struct.mbim_pair_list, ptr %14, i32 0, i32 1
  %56 = call ptr @proto_tree_add_item_ret_uint(ptr noundef %51, i32 noundef %52, ptr noundef %53, i32 noundef %54, i32 noundef 4, i32 noundef -2147483648, ptr noundef %55)
  %57 = load i32, ptr %8, align 4
  %58 = add i32 %57, 4
  store i32 %58, ptr %8, align 4
  %59 = load ptr, ptr %13, align 8
  call void @wmem_array_append(ptr noundef %59, ptr noundef %14, i32 noundef 1)
  br label %60

60:                                               ; preds = %42
  %61 = load i32, ptr %11, align 4
  %62 = add i32 %61, 1
  store i32 %62, ptr %11, align 4
  br label %38, !llvm.loop !45

63:                                               ; preds = %38
  store i32 0, ptr %11, align 4
  br label %64

64:                                               ; preds = %108, %63
  %65 = load i32, ptr %11, align 4
  %66 = load i32, ptr %12, align 4
  %67 = icmp ult i32 %65, %66
  br i1 %67, label %68, label %111

68:                                               ; preds = %64
  %69 = load ptr, ptr %13, align 8
  %70 = load i32, ptr %11, align 4
  %71 = call ptr @wmem_array_index(ptr noundef %69, i32 noundef %70)
  store ptr %71, ptr %15, align 8
  %72 = load ptr, ptr %15, align 8
  %73 = getelementptr inbounds %struct.mbim_pair_list, ptr %72, i32 0, i32 0
  %74 = load i32, ptr %73, align 4
  %75 = icmp ne i32 %74, 0
  br i1 %75, label %76, label %107

76:                                               ; preds = %68
  %77 = load ptr, ptr %15, align 8
  %78 = getelementptr inbounds %struct.mbim_pair_list, ptr %77, i32 0, i32 1
  %79 = load i32, ptr %78, align 4
  %80 = icmp ne i32 %79, 0
  br i1 %80, label %81, label %107

81:                                               ; preds = %76
  %82 = load ptr, ptr %7, align 8
  %83 = load ptr, ptr %5, align 8
  %84 = load i32, ptr %10, align 4
  %85 = load ptr, ptr %15, align 8
  %86 = getelementptr inbounds %struct.mbim_pair_list, ptr %85, i32 0, i32 0
  %87 = load i32, ptr %86, align 4
  %88 = add i32 %84, %87
  %89 = load ptr, ptr %15, align 8
  %90 = getelementptr inbounds %struct.mbim_pair_list, ptr %89, i32 0, i32 1
  %91 = load i32, ptr %90, align 4
  %92 = load i32, ptr @ett_mbim_pair_list, align 4
  %93 = load i32, ptr %11, align 4
  %94 = add i32 %93, 1
  %95 = call ptr (ptr, ptr, i32, i32, i32, ptr, ptr, ...) @proto_tree_add_subtree_format(ptr noundef %82, ptr noundef %83, i32 noundef %88, i32 noundef %91, i32 noundef %92, ptr noundef null, ptr noundef @.str.2596, i32 noundef %94)
  store ptr %95, ptr %9, align 8
  %96 = load ptr, ptr %5, align 8
  %97 = load ptr, ptr %6, align 8
  %98 = load ptr, ptr %9, align 8
  %99 = load i32, ptr %10, align 4
  %100 = load ptr, ptr %15, align 8
  %101 = getelementptr inbounds %struct.mbim_pair_list, ptr %100, i32 0, i32 0
  %102 = load i32, ptr %101, align 4
  %103 = add i32 %99, %102
  %104 = load ptr, ptr %15, align 8
  %105 = getelementptr inbounds %struct.mbim_pair_list, ptr %104, i32 0, i32 1
  %106 = load i32, ptr %105, align 4
  call void @mbim_dissect_adpclk_freq_value(ptr noundef %96, ptr noundef %97, ptr noundef %98, i32 noundef %103, i32 noundef %106)
  br label %107

107:                                              ; preds = %81, %76, %68
  br label %108

108:                                              ; preds = %107
  %109 = load i32, ptr %11, align 4
  %110 = add i32 %109, 1
  store i32 %110, ptr %11, align 4
  br label %64, !llvm.loop !46

111:                                              ; preds = %64
  br label %112

112:                                              ; preds = %111, %4
  ret void
}