; Function Attrs: nounwind uwtable
define internal fastcc void @mbim_dissect_adpclk_freq_info(ptr noundef %0, ptr noundef readonly captures(none) %1, ptr noundef %2, i32 noundef %3) unnamed_addr #0 {
  %5 = alloca i32, align 4
  %6 = alloca %struct.mbim_pair_list, align 4
  %7 = load i32, ptr @hf_mbim_adpclk_freq_info_elem_count, align 4
  %8 = call ptr @proto_tree_add_item_ret_uint(ptr noundef %2, i32 noundef %7, ptr noundef %0, i32 noundef %3, i32 noundef 4, i32 noundef -2147483648, ptr noundef nonnull %5) #10
  %9 = load i32, ptr %5, align 4
  %.not = icmp eq i32 %9, 0
  br i1 %.not, label %.loopexit, label %10

10:                                               ; preds = %4
  %11 = add i32 %3, 4
  %12 = getelementptr inbounds nuw i8, ptr %1, i64 408
  %13 = load ptr, ptr %12, align 8
  %14 = call noalias ptr @wmem_array_new(ptr noundef %13, i64 noundef 8) #10
  %15 = load i32, ptr %5, align 4
  %16 = shl i32 %15, 3
  %17 = load i32, ptr @ett_mbim_pair_list, align 4
  %18 = call ptr @proto_tree_add_subtree(ptr noundef %2, ptr noundef %0, i32 noundef %11, i32 noundef %16, i32 noundef %17, ptr noundef null, ptr noundef nonnull @.str.2595) #10
  %19 = load i32, ptr %5, align 4
  %.not46 = icmp eq i32 %19, 0
  br i1 %.not46, label %.loopexit, label %.lr.ph

.lr.ph:                                           ; preds = %10
  %20 = getelementptr inbounds nuw i8, ptr %6, i64 4
  br label %22

.preheader:                                       ; preds = %22
  %21 = icmp eq i32 %30, 0
  br i1 %21, label %.loopexit, label %.lr.ph45

22:                                               ; preds = %.lr.ph, %22
  %.043 = phi i32 [ %11, %.lr.ph ], [ %28, %22 ]
  %.03742 = phi i32 [ 0, %.lr.ph ], [ %29, %22 ]
  %23 = load i32, ptr @hf_mbim_adpclk_freq_info_adpclk_freq_value_offset, align 4
  %24 = call ptr @proto_tree_add_item_ret_uint(ptr noundef %18, i32 noundef %23, ptr noundef %0, i32 noundef %.043, i32 noundef 4, i32 noundef -2147483648, ptr noundef nonnull %6) #10
  %25 = add i32 %.043, 4
  %26 = load i32, ptr @hf_mbim_adpclk_freq_info_adpclk_freq_value_size, align 4
  %27 = call ptr @proto_tree_add_item_ret_uint(ptr noundef %18, i32 noundef %26, ptr noundef %0, i32 noundef %25, i32 noundef 4, i32 noundef -2147483648, ptr noundef nonnull %20) #10
  %28 = add i32 %.043, 8
  call void @wmem_array_append(ptr noundef %14, ptr noundef nonnull %6, i32 noundef 1) #10
  %29 = add nuw i32 %.03742, 1
  %30 = load i32, ptr %5, align 4
  %31 = icmp ult i32 %29, %30
  br i1 %31, label %22, label %.preheader, !llvm.loop !50

.lr.ph45:                                         ; preds = %.preheader, %mbim_dissect_adpclk_freq_value.exit
  %.144 = phi i32 [ %65, %mbim_dissect_adpclk_freq_value.exit ], [ 0, %.preheader ]
  %32 = call ptr @wmem_array_index(ptr noundef %14, i32 noundef %.144) #10
  %33 = load i32, ptr %32, align 4
  %.not40 = icmp eq i32 %33, 0
  br i1 %.not40, label %mbim_dissect_adpclk_freq_value.exit, label %34

34:                                               ; preds = %.lr.ph45
  %35 = getelementptr inbounds nuw i8, ptr %32, i64 4
  %36 = load i32, ptr %35, align 4
  %.not41 = icmp eq i32 %36, 0
  br i1 %.not41, label %mbim_dissect_adpclk_freq_value.exit, label %37

37:                                               ; preds = %34
  %38 = add i32 %33, %3
  %39 = load i32, ptr @ett_mbim_pair_list, align 4
  %40 = add nuw i32 %.144, 1
  %41 = call ptr (ptr, ptr, i32, i32, i32, ptr, ptr, ...) @proto_tree_add_subtree_format(ptr noundef %2, ptr noundef %0, i32 noundef %38, i32 noundef %36, i32 noundef %39, ptr noundef null, ptr noundef nonnull @.str.2596, i32 noundef %40) #10
  %42 = load i32, ptr %32, align 4
  %43 = add i32 %42, %3
  %44 = load i32, ptr %35, align 4
  %45 = load i32, ptr @hf_mbim_adpclk_freq_info_adpclk_freq_value_center_freq, align 4
  %46 = call ptr @proto_tree_add_item(ptr noundef %41, i32 noundef %45, ptr noundef %0, i32 noundef %43, i32 noundef 8, i32 noundef -2147483648) #10
  %47 = add i32 %43, 4
  %48 = load i32, ptr @hf_mbim_adpclk_freq_info_adpclk_freq_value_freq_spread, align 4
  %49 = call ptr @proto_tree_add_item(ptr noundef %41, i32 noundef %48, ptr noundef %0, i32 noundef %47, i32 noundef 4, i32 noundef -2147483648) #10
  %50 = icmp ugt i32 %44, 8
  br i1 %50, label %51, label %mbim_dissect_adpclk_freq_value.exit

51:                                               ; preds = %37
  %52 = add i32 %43, 8
  %53 = load i32, ptr @hf_mbim_adpclk_freq_info_adpclk_freq_value_noise_power, align 4
  %54 = call ptr @proto_tree_add_item(ptr noundef %41, i32 noundef %53, ptr noundef %0, i32 noundef %52, i32 noundef 4, i32 noundef -2147483648) #10
  %55 = icmp ugt i32 %44, 12
  br i1 %55, label %56, label %mbim_dissect_adpclk_freq_value.exit

56:                                               ; preds = %51
  %57 = add i32 %43, 12
  %58 = load i32, ptr @hf_mbim_adpclk_freq_info_adpclk_freq_value_rssi, align 4
  %59 = call ptr @proto_tree_add_item(ptr noundef %41, i32 noundef %58, ptr noundef %0, i32 noundef %57, i32 noundef 4, i32 noundef -2147483648) #10
  %60 = icmp ugt i32 %44, 16
  br i1 %60, label %61, label %mbim_dissect_adpclk_freq_value.exit

61:                                               ; preds = %56
  %62 = add i32 %43, 16
  %63 = load i32, ptr @hf_mbim_adpclk_freq_info_adpclk_freq_value_connect_status, align 4
  %64 = call ptr @proto_tree_add_item(ptr noundef %41, i32 noundef %63, ptr noundef %0, i32 noundef %62, i32 noundef 4, i32 noundef -2147483648) #10
  br label %mbim_dissect_adpclk_freq_value.exit

mbim_dissect_adpclk_freq_value.exit:              ; preds = %61, %56, %51, %37, %.lr.ph45, %34
  %65 = add nuw i32 %.144, 1
  %66 = load i32, ptr %5, align 4
  %67 = icmp ult i32 %65, %66
  br i1 %67, label %.lr.ph45, label %.loopexit, !llvm.loop !51

.loopexit:                                        ; preds = %mbim_dissect_adpclk_freq_value.exit, %10, %.preheader, %4
  ret void
}